; Function Attrs: nounwind uwtable
define internal fastcc range(i32 -2147483648, 2) i32 @r_en_ending(ptr noundef %0) unnamed_addr #0 {
  %2 = getelementptr i8, ptr %0, i64 8
  %.val = load i32, ptr %2, align 8
  %3 = getelementptr i8, ptr %0, i64 40
  %.val38 = load ptr, ptr %3, align 8
  %4 = getelementptr i8, ptr %.val38, i64 4
  %.val38.val = load i32, ptr %4, align 4
  %.not.i.not = icmp sgt i32 %.val38.val, %.val
  br i1 %.not.i.not, label %.thread, label %5

5:                                                ; preds = %1
  %6 = getelementptr inbounds nuw i8, ptr %0, i64 12
  %7 = load i32, ptr %6, align 4
  %8 = tail call i32 @out_grouping_b(ptr noundef nonnull %0, ptr noundef nonnull @g_v, i32 noundef 97, i32 noundef 232, i32 noundef 0) #3
  %.not = icmp eq i32 %8, 0
  br i1 %.not, label %9, label %.thread

9:                                                ; preds = %5
  %.neg = sub i32 %.val, %7
  %10 = load i32, ptr %6, align 4
  %11 = add i32 %10, %.neg
  store i32 %11, ptr %2, align 8
  %12 = tail call i32 @eq_s_b(ptr noundef nonnull %0, i32 noundef 3, ptr noundef nonnull @s_10) #3
  %.not32 = icmp eq i32 %12, 0
  br i1 %.not32, label %13, label %.thread

13:                                               ; preds = %9
  %14 = load i32, ptr %6, align 4
  %15 = add i32 %14, %.neg
  store i32 %15, ptr %2, align 8
  %16 = tail call i32 @slice_del(ptr noundef nonnull %0) #3
  %17 = icmp sgt i32 %16, -1
  br i1 %17, label %18, label %.thread

18:                                               ; preds = %13
  %19 = load i32, ptr %6, align 4
  %20 = load i32, ptr %2, align 8
  %.neg.i = sub i32 %20, %19
  %21 = add i32 %20, -1
  %22 = getelementptr inbounds nuw i8, ptr %0, i64 16
  %23 = load i32, ptr %22, align 8
  %.not.i39 = icmp sgt i32 %21, %23
  br i1 %.not.i39, label %24, label %.thread

24:                                               ; preds = %18
  %25 = load ptr, ptr %0, align 8
  %26 = sext i32 %21 to i64
  %27 = getelementptr inbounds i8, ptr %25, i64 %26
  %28 = load i8, ptr %27, align 1
  %29 = zext i8 %28 to i32
  %.mask.i = and i32 %29, 224
  %.not28.i = icmp eq i32 %.mask.i, 96
  br i1 %.not28.i, label %30, label %.thread

30:                                               ; preds = %24
  %31 = and i32 %29, 31
  %32 = shl nuw i32 1, %31
  %33 = and i32 %32, 1050640
  %.not29.i = icmp eq i32 %33, 0
  br i1 %.not29.i, label %.thread, label %34

34:                                               ; preds = %30
  %35 = tail call i32 @find_among_b(ptr noundef nonnull %0, ptr noundef nonnull @a_2, i32 noundef 3) #3
  %.not30.i = icmp eq i32 %35, 0
  br i1 %.not30.i, label %.thread, label %36

36:                                               ; preds = %34
  %37 = load i32, ptr %6, align 4
  %38 = add i32 %37, %.neg.i
  store i32 %38, ptr %2, align 8
  %39 = getelementptr inbounds nuw i8, ptr %0, i64 24
  store i32 %38, ptr %39, align 8
  %40 = load i32, ptr %22, align 8
  %.not31.i = icmp sgt i32 %38, %40
  br i1 %.not31.i, label %41, label %.thread

41:                                               ; preds = %36
  %42 = add nsw i32 %38, -1
  store i32 %42, ptr %2, align 8
  %43 = getelementptr inbounds nuw i8, ptr %0, i64 20
  store i32 %42, ptr %43, align 4
  %44 = tail call i32 @slice_del(ptr noundef nonnull %0) #3
  %45 = icmp sgt i32 %44, -1
  %..i40 = tail call i32 @llvm.smin.i32(i32 %44, i32 0)
  %spec.select.i = select i1 %45, i32 1, i32 %..i40
  br label %.thread

.thread:                                          ; preds = %41, %36, %34, %30, %24, %18, %9, %5, %13, %1
  %.1 = phi i32 [ 0, %1 ], [ %16, %13 ], [ 0, %5 ], [ 0, %9 ], [ 0, %36 ], [ %spec.select.i, %41 ], [ 0, %30 ], [ 0, %24 ], [ 0, %18 ], [ 0, %34 ]
  ret i32 %.1
}